target datalayout = "e-m:e-p270:32:32-p271:32:32-p272:64:64-i64:64-i128:128-f80:128-n8:16:32:64-S128"
target triple = "x86_64-pc-linux-gnu"

%struct.CodedBitstreamContext = type { ptr, ptr, ptr, ptr, i32, i32, i32, ptr, ptr, ptr, ptr, i64 }
%struct.H264RawNALUnitHeader = type { i8, i8, i8, i8 }

@.str.53 = private unnamed_addr constant [19 x i8] c"forbidden_zero_bit\00", align 1
@.str.54 = private unnamed_addr constant [12 x i8] c"nal_ref_idc\00", align 1
@.str.55 = private unnamed_addr constant [14 x i8] c"nal_unit_type\00", align 1
@.str.56 = private unnamed_addr constant [27 x i8] c"Invalid NAL unit type %d.\0A\00", align 1
@.str.57 = private unnamed_addr constant [19 x i8] c"svc_extension_flag\00", align 1
@.str.58 = private unnamed_addr constant [22 x i8] c"avc_3d_extension_flag\00", align 1
@.str.59 = private unnamed_addr constant [20 x i8] c"SVC not supported.\0A\00", align 1
@.str.60 = private unnamed_addr constant [22 x i8] c"3DAVC not supported.\0A\00", align 1
@.str.61 = private unnamed_addr constant [20 x i8] c"MVC not supported.\0A\00", align 1

; Function Attrs: nounwind uwtable
define internal i32 @cbs_h264_read_nal_unit_header(ptr noundef %0, ptr noundef %1, ptr noundef %2, i32 noundef %3) #0 {
  %5 = alloca i32, align 4
  %6 = alloca ptr, align 8
  %7 = alloca ptr, align 8
  %8 = alloca ptr, align 8
  %9 = alloca i32, align 4
  %10 = alloca i32, align 4
  %11 = alloca i32, align 4
  %12 = alloca i32, align 4
  %13 = alloca i32, align 4
  %14 = alloca i32, align 4
  %15 = alloca i32, align 4
  %16 = alloca i32, align 4
  %17 = alloca i32, align 4
  store ptr %0, ptr %6, align 8, !tbaa !4
  store ptr %1, ptr %7, align 8, !tbaa !196
  store ptr %2, ptr %8, align 8, !tbaa !74
  store i32 %3, ptr %9, align 4, !tbaa !11
  call void @llvm.lifetime.start.p0(i64 4, ptr %10) #11
  br label %18

18:                                               ; preds = %4
  call void @llvm.lifetime.start.p0(i64 4, ptr %11) #11
  store i32 0, ptr %11, align 4, !tbaa !11
  br label %19

19:                                               ; preds = %18
  call void @llvm.lifetime.start.p0(i64 4, ptr %12) #11
  br label %20

20:                                               ; preds = %19
  %21 = load ptr, ptr %6, align 8, !tbaa !4
  %22 = load ptr, ptr %7, align 8, !tbaa !196
  %23 = call i32 @ff_cbs_read_unsigned(ptr noundef %21, ptr noundef %22, i32 noundef 1, ptr noundef @.str.53, ptr noundef null, ptr noundef %12, i32 noundef 0, i32 noundef 0)
  store i32 %23, ptr %10, align 4, !tbaa !11
  %24 = load i32, ptr %10, align 4, !tbaa !11
  %25 = icmp slt i32 %24, 0
  br i1 %25, label %26, label %28

26:                                               ; preds = %20
  %27 = load i32, ptr %10, align 4, !tbaa !11
  store i32 %27, ptr %5, align 4
  store i32 1, ptr %13, align 4
  br label %32

28:                                               ; preds = %20
  br label %29

29:                                               ; preds = %28
  br label %30

30:                                               ; preds = %29
  %31 = load i32, ptr %12, align 4, !tbaa !11
  store i32 %31, ptr %11, align 4, !tbaa !11
  store i32 0, ptr %13, align 4
  br label %32

32:                                               ; preds = %30, %26
  call void @llvm.lifetime.end.p0(i64 4, ptr %12) #11
  %33 = load i32, ptr %13, align 4
  switch i32 %33, label %37 [
    i32 0, label %34
  ]

34:                                               ; preds = %32
  br label %35

35:                                               ; preds = %34
  br label %36

36:                                               ; preds = %35
  store i32 0, ptr %13, align 4
  br label %37

37:                                               ; preds = %36, %32
  call void @llvm.lifetime.end.p0(i64 4, ptr %11) #11
  %38 = load i32, ptr %13, align 4
  switch i32 %38, label %191 [
    i32 0, label %39
  ]

39:                                               ; preds = %37
  br label %40

40:                                               ; preds = %39
  br label %41

41:                                               ; preds = %40
  br label %42

42:                                               ; preds = %41
  call void @llvm.lifetime.start.p0(i64 4, ptr %14) #11
  br label %43

43:                                               ; preds = %42
  %44 = load ptr, ptr %6, align 8, !tbaa !4
  %45 = load ptr, ptr %7, align 8, !tbaa !196
  %46 = call i32 @ff_cbs_read_simple_unsigned(ptr noundef %44, ptr noundef %45, i32 noundef 2, ptr noundef @.str.54, ptr noundef %14)
  store i32 %46, ptr %10, align 4, !tbaa !11
  %47 = load i32, ptr %10, align 4, !tbaa !11
  %48 = icmp slt i32 %47, 0
  br i1 %48, label %49, label %51

49:                                               ; preds = %43
  %50 = load i32, ptr %10, align 4, !tbaa !11
  store i32 %50, ptr %5, align 4
  store i32 1, ptr %13, align 4
  br label %58

51:                                               ; preds = %43
  br label %52

52:                                               ; preds = %51
  br label %53

53:                                               ; preds = %52
  %54 = load i32, ptr %14, align 4, !tbaa !11
  %55 = trunc i32 %54 to i8
  %56 = load ptr, ptr %8, align 8, !tbaa !74
  %57 = getelementptr inbounds nuw %struct.H264RawNALUnitHeader, ptr %56, i32 0, i32 0
  store i8 %55, ptr %57, align 1, !tbaa !76
  store i32 0, ptr %13, align 4
  br label %58

58:                                               ; preds = %53, %49
  call void @llvm.lifetime.end.p0(i64 4, ptr %14) #11
  %59 = load i32, ptr %13, align 4
  switch i32 %59, label %191 [
    i32 0, label %60
  ]

60:                                               ; preds = %58
  br label %61

61:                                               ; preds = %60
  br label %62

62:                                               ; preds = %61
  br label %63

63:                                               ; preds = %62
  call void @llvm.lifetime.start.p0(i64 4, ptr %15) #11
  br label %64

64:                                               ; preds = %63
  %65 = load ptr, ptr %6, align 8, !tbaa !4
  %66 = load ptr, ptr %7, align 8, !tbaa !196
  %67 = call i32 @ff_cbs_read_simple_unsigned(ptr noundef %65, ptr noundef %66, i32 noundef 5, ptr noundef @.str.55, ptr noundef %15)
  store i32 %67, ptr %10, align 4, !tbaa !11
  %68 = load i32, ptr %10, align 4, !tbaa !11
  %69 = icmp slt i32 %68, 0
  br i1 %69, label %70, label %72

70:                                               ; preds = %64
  %71 = load i32, ptr %10, align 4, !tbaa !11
  store i32 %71, ptr %5, align 4
  store i32 1, ptr %13, align 4
  br label %79

72:                                               ; preds = %64
  br label %73

73:                                               ; preds = %72
  br label %74

74:                                               ; preds = %73
  %75 = load i32, ptr %15, align 4, !tbaa !11
  %76 = trunc i32 %75 to i8
  %77 = load ptr, ptr %8, align 8, !tbaa !74
  %78 = getelementptr inbounds nuw %struct.H264RawNALUnitHeader, ptr %77, i32 0, i32 1
  store i8 %76, ptr %78, align 1, !tbaa !320
  store i32 0, ptr %13, align 4
  br label %79

79:                                               ; preds = %74, %70
  call void @llvm.lifetime.end.p0(i64 4, ptr %15) #11
  %80 = load i32, ptr %13, align 4
  switch i32 %80, label %191 [
    i32 0, label %81
  ]

81:                                               ; preds = %79
  br label %82

82:                                               ; preds = %81
  br label %83

83:                                               ; preds = %82
  %84 = load ptr, ptr %8, align 8, !tbaa !74
  %85 = getelementptr inbounds nuw %struct.H264RawNALUnitHeader, ptr %84, i32 0, i32 1
  %86 = load i8, ptr %85, align 1, !tbaa !320
  %87 = zext i8 %86 to i32
  %88 = shl i32 1, %87
  %89 = load i32, ptr %9, align 4, !tbaa !11
  %90 = and i32 %88, %89
  %91 = icmp ne i32 %90, 0
  br i1 %91, label %100, label %92

92:                                               ; preds = %83
  %93 = load ptr, ptr %6, align 8, !tbaa !4
  %94 = getelementptr inbounds nuw %struct.CodedBitstreamContext, ptr %93, i32 0, i32 0
  %95 = load ptr, ptr %94, align 8, !tbaa !38
  %96 = load ptr, ptr %8, align 8, !tbaa !74
  %97 = getelementptr inbounds nuw %struct.H264RawNALUnitHeader, ptr %96, i32 0, i32 1
  %98 = load i8, ptr %97, align 1, !tbaa !320
  %99 = zext i8 %98 to i32
  call void (ptr, i32, ptr, ...) @av_log(ptr noundef %95, i32 noundef 16, ptr noundef @.str.56, i32 noundef %99)
  store i32 -1094995529, ptr %5, align 4
  store i32 1, ptr %13, align 4
  br label %191

100:                                              ; preds = %83
  %101 = load ptr, ptr %8, align 8, !tbaa !74
  %102 = getelementptr inbounds nuw %struct.H264RawNALUnitHeader, ptr %101, i32 0, i32 1
  %103 = load i8, ptr %102, align 1, !tbaa !320
  %104 = zext i8 %103 to i32
  %105 = icmp eq i32 %104, 14
  br i1 %105, label %118, label %106

106:                                              ; preds = %100
  %107 = load ptr, ptr %8, align 8, !tbaa !74
  %108 = getelementptr inbounds nuw %struct.H264RawNALUnitHeader, ptr %107, i32 0, i32 1
  %109 = load i8, ptr %108, align 1, !tbaa !320
  %110 = zext i8 %109 to i32
  %111 = icmp eq i32 %110, 20
  br i1 %111, label %118, label %112

112:                                              ; preds = %106
  %113 = load ptr, ptr %8, align 8, !tbaa !74
  %114 = getelementptr inbounds nuw %struct.H264RawNALUnitHeader, ptr %113, i32 0, i32 1
  %115 = load i8, ptr %114, align 1, !tbaa !320
  %116 = zext i8 %115 to i32
  %117 = icmp eq i32 %116, 21
  br i1 %117, label %118, label %190

118:                                              ; preds = %112, %106, %100
  %119 = load ptr, ptr %8, align 8, !tbaa !74
  %120 = getelementptr inbounds nuw %struct.H264RawNALUnitHeader, ptr %119, i32 0, i32 1
  %121 = load i8, ptr %120, align 1, !tbaa !320
  %122 = zext i8 %121 to i32
  %123 = icmp ne i32 %122, 21
  br i1 %123, label %124, label %146

124:                                              ; preds = %118
  br label %125

125:                                              ; preds = %124
  call void @llvm.lifetime.start.p0(i64 4, ptr %16) #11
  br label %126

126:                                              ; preds = %125
  %127 = load ptr, ptr %6, align 8, !tbaa !4
  %128 = load ptr, ptr %7, align 8, !tbaa !196
  %129 = call i32 @ff_cbs_read_simple_unsigned(ptr noundef %127, ptr noundef %128, i32 noundef 1, ptr noundef @.str.57, ptr noundef %16)
  store i32 %129, ptr %10, align 4, !tbaa !11
  %130 = load i32, ptr %10, align 4, !tbaa !11
  %131 = icmp slt i32 %130, 0
  br i1 %131, label %132, label %134

132:                                              ; preds = %126
  %133 = load i32, ptr %10, align 4, !tbaa !11
  store i32 %133, ptr %5, align 4
  store i32 1, ptr %13, align 4
  br label %141

134:                                              ; preds = %126
  br label %135

135:                                              ; preds = %134
  br label %136

136:                                              ; preds = %135
  %137 = load i32, ptr %16, align 4, !tbaa !11
  %138 = trunc i32 %137 to i8
  %139 = load ptr, ptr %8, align 8, !tbaa !74
  %140 = getelementptr inbounds nuw %struct.H264RawNALUnitHeader, ptr %139, i32 0, i32 2
  store i8 %138, ptr %140, align 1, !tbaa !321
  store i32 0, ptr %13, align 4
  br label %141

141:                                              ; preds = %136, %132
  call void @llvm.lifetime.end.p0(i64 4, ptr %16) #11
  %142 = load i32, ptr %13, align 4
  switch i32 %142, label %191 [
    i32 0, label %143
  ]

143:                                              ; preds = %141
  br label %144

144:                                              ; preds = %143
  br label %145

145:                                              ; preds = %144
  br label %168

146:                                              ; preds = %118
  br label %147

147:                                              ; preds = %146
  call void @llvm.lifetime.start.p0(i64 4, ptr %17) #11
  br label %148

148:                                              ; preds = %147
  %149 = load ptr, ptr %6, align 8, !tbaa !4
  %150 = load ptr, ptr %7, align 8, !tbaa !196
  %151 = call i32 @ff_cbs_read_simple_unsigned(ptr noundef %149, ptr noundef %150, i32 noundef 1, ptr noundef @.str.58, ptr noundef %17)
  store i32 %151, ptr %10, align 4, !tbaa !11
  %152 = load i32, ptr %10, align 4, !tbaa !11
  %153 = icmp slt i32 %152, 0
  br i1 %153, label %154, label %156

154:                                              ; preds = %148
  %155 = load i32, ptr %10, align 4, !tbaa !11
  store i32 %155, ptr %5, align 4
  store i32 1, ptr %13, align 4
  br label %163

156:                                              ; preds = %148
  br label %157

157:                                              ; preds = %156
  br label %158

158:                                              ; preds = %157
  %159 = load i32, ptr %17, align 4, !tbaa !11
  %160 = trunc i32 %159 to i8
  %161 = load ptr, ptr %8, align 8, !tbaa !74
  %162 = getelementptr inbounds nuw %struct.H264RawNALUnitHeader, ptr %161, i32 0, i32 3
  store i8 %160, ptr %162, align 1, !tbaa !322
  store i32 0, ptr %13, align 4
  br label %163

163:                                              ; preds = %158, %154
  call void @llvm.lifetime.end.p0(i64 4, ptr %17) #11
  %164 = load i32, ptr %13, align 4
  switch i32 %164, label %191 [
    i32 0, label %165
  ]

165:                                              ; preds = %163
  br label %166

166:                                              ; preds = %165
  br label %167

167:                                              ; preds = %166
  br label %168

168:                                              ; preds = %167, %145
  %169 = load ptr, ptr %8, align 8, !tbaa !74
  %170 = getelementptr inbounds nuw %struct.H264RawNALUnitHeader, ptr %169, i32 0, i32 2
  %171 = load i8, ptr %170, align 1, !tbaa !321
  %172 = icmp ne i8 %171, 0
  br i1 %172, label %173, label %177

173:                                              ; preds = %168
  %174 = load ptr, ptr %6, align 8, !tbaa !4
  %175 = getelementptr inbounds nuw %struct.CodedBitstreamContext, ptr %174, i32 0, i32 0
  %176 = load ptr, ptr %175, align 8, !tbaa !38
  call void (ptr, i32, ptr, ...) @av_log(ptr noundef %176, i32 noundef 16, ptr noundef @.str.59)
  store i32 -1163346256, ptr %5, align 4
  store i32 1, ptr %13, align 4
  br label %191

177:                                              ; preds = %168
  %178 = load ptr, ptr %8, align 8, !tbaa !74
  %179 = getelementptr inbounds nuw %struct.H264RawNALUnitHeader, ptr %178, i32 0, i32 3
  %180 = load i8, ptr %179, align 1, !tbaa !322
  %181 = icmp ne i8 %180, 0
  br i1 %181, label %182, label %186

182:                                              ; preds = %177
  %183 = load ptr, ptr %6, align 8, !tbaa !4
  %184 = getelementptr inbounds nuw %struct.CodedBitstreamContext, ptr %183, i32 0, i32 0
  %185 = load ptr, ptr %184, align 8, !tbaa !38
  call void (ptr, i32, ptr, ...) @av_log(ptr noundef %185, i32 noundef 16, ptr noundef @.str.60)
  store i32 -1163346256, ptr %5, align 4
  store i32 1, ptr %13, align 4
  br label %191

186:                                              ; preds = %177
  %187 = load ptr, ptr %6, align 8, !tbaa !4
  %188 = getelementptr inbounds nuw %struct.CodedBitstreamContext, ptr %187, i32 0, i32 0
  %189 = load ptr, ptr %188, align 8, !tbaa !38
  call void (ptr, i32, ptr, ...) @av_log(ptr noundef %189, i32 noundef 16, ptr noundef @.str.61)
  store i32 -1163346256, ptr %5, align 4
  store i32 1, ptr %13, align 4
  br label %191

190:                                              ; preds = %112
  store i32 0, ptr %5, align 4
  store i32 1, ptr %13, align 4
  br label %191

191:                                              ; preds = %190, %186, %182, %173, %163, %141, %92, %79, %58, %37
  call void @llvm.lifetime.end.p0(i64 4, ptr %10) #11
  %192 = load i32, ptr %5, align 4
  ret i32 %192
}