; Function Attrs: nounwind uwtable
define internal fastcc range(i32 -2147483648, 1) i32 @cbs_h264_read_nal_unit_header(ptr noundef %0, ptr noundef %1, ptr noundef captures(none) %2, i32 noundef range(i32 64, 524323) %3) unnamed_addr #0 {
  %5 = alloca i32, align 4
  %6 = alloca i32, align 4
  %7 = alloca i32, align 4
  %8 = alloca i32, align 4
  %9 = alloca i32, align 4
  call void @llvm.lifetime.start.p0(i64 4, ptr nonnull %5) #11
  %10 = call i32 @ff_cbs_read_unsigned(ptr noundef %0, ptr noundef %1, i32 noundef 1, ptr noundef nonnull @.str.53, ptr noundef null, ptr noundef nonnull %5, i32 noundef 0, i32 noundef 0) #11
  %11 = icmp sgt i32 %10, -1
  call void @llvm.lifetime.end.p0(i64 4, ptr nonnull %5) #11
  br i1 %11, label %12, label %56

12:                                               ; preds = %4
  call void @llvm.lifetime.start.p0(i64 4, ptr nonnull %6) #11
  %13 = call i32 @ff_cbs_read_simple_unsigned(ptr noundef %0, ptr noundef %1, i32 noundef 2, ptr noundef nonnull @.str.54, ptr noundef nonnull %6) #11
  %14 = icmp sgt i32 %13, -1
  br i1 %14, label %16, label %15

15:                                               ; preds = %12
  call void @llvm.lifetime.end.p0(i64 4, ptr nonnull %6) #11
  br label %56

16:                                               ; preds = %12
  %17 = load i32, ptr %6, align 4, !tbaa !63
  %18 = trunc i32 %17 to i8
  store i8 %18, ptr %2, align 1, !tbaa !209
  call void @llvm.lifetime.end.p0(i64 4, ptr nonnull %6) #11
  call void @llvm.lifetime.start.p0(i64 4, ptr nonnull %7) #11
  %19 = call i32 @ff_cbs_read_simple_unsigned(ptr noundef %0, ptr noundef %1, i32 noundef 5, ptr noundef nonnull @.str.55, ptr noundef nonnull %7) #11
  %20 = icmp sgt i32 %19, -1
  br i1 %20, label %22, label %21

21:                                               ; preds = %16
  call void @llvm.lifetime.end.p0(i64 4, ptr nonnull %7) #11
  br label %56

22:                                               ; preds = %16
  %23 = load i32, ptr %7, align 4, !tbaa !63
  %24 = trunc i32 %23 to i8
  %25 = getelementptr inbounds nuw i8, ptr %2, i64 1
  store i8 %24, ptr %25, align 1, !tbaa !825
  call void @llvm.lifetime.end.p0(i64 4, ptr nonnull %7) #11
  %26 = and i32 %23, 255
  %27 = shl nuw i32 1, %26
  %28 = and i32 %27, %3
  %.not = icmp eq i32 %28, 0
  br i1 %.not, label %29, label %31

29:                                               ; preds = %22
  %30 = load ptr, ptr %0, align 8, !tbaa !31
  call void (ptr, i32, ptr, ...) @av_log(ptr noundef %30, i32 noundef 16, ptr noundef nonnull @.str.56, i32 noundef %26) #11
  br label %56

31:                                               ; preds = %22
  switch i8 %24, label %56 [
    i8 21, label %39
    i8 14, label %32
    i8 20, label %32
  ]

32:                                               ; preds = %31, %31
  call void @llvm.lifetime.start.p0(i64 4, ptr nonnull %8) #11
  %33 = call i32 @ff_cbs_read_simple_unsigned(ptr noundef %0, ptr noundef %1, i32 noundef 1, ptr noundef nonnull @.str.57, ptr noundef nonnull %8) #11
  %34 = icmp sgt i32 %33, -1
  br i1 %34, label %.thread66, label %38

.thread66:                                        ; preds = %32
  %35 = load i32, ptr %8, align 4, !tbaa !63
  %36 = trunc i32 %35 to i8
  %37 = getelementptr inbounds nuw i8, ptr %2, i64 2
  store i8 %36, ptr %37, align 1, !tbaa !826
  call void @llvm.lifetime.end.p0(i64 4, ptr nonnull %8) #11
  br label %46

38:                                               ; preds = %32
  call void @llvm.lifetime.end.p0(i64 4, ptr nonnull %8) #11
  br label %56

39:                                               ; preds = %31
  call void @llvm.lifetime.start.p0(i64 4, ptr nonnull %9) #11
  %40 = call i32 @ff_cbs_read_simple_unsigned(ptr noundef %0, ptr noundef %1, i32 noundef 1, ptr noundef nonnull @.str.58, ptr noundef nonnull %9) #11
  %41 = icmp sgt i32 %40, -1
  br i1 %41, label %.thread68, label %45

.thread68:                                        ; preds = %39
  %42 = load i32, ptr %9, align 4, !tbaa !63
  %43 = trunc i32 %42 to i8
  %44 = getelementptr inbounds nuw i8, ptr %2, i64 3
  store i8 %43, ptr %44, align 1, !tbaa !827
  call void @llvm.lifetime.end.p0(i64 4, ptr nonnull %9) #11
  %.phi.trans.insert = getelementptr inbounds nuw i8, ptr %2, i64 2
  %.pre = load i8, ptr %.phi.trans.insert, align 1, !tbaa !826
  br label %46

45:                                               ; preds = %39
  call void @llvm.lifetime.end.p0(i64 4, ptr nonnull %9) #11
  br label %56

46:                                               ; preds = %.thread68, %.thread66
  %47 = phi i8 [ %.pre, %.thread68 ], [ %36, %.thread66 ]
  %.not59 = icmp eq i8 %47, 0
  br i1 %.not59, label %50, label %48

48:                                               ; preds = %46
  %49 = load ptr, ptr %0, align 8, !tbaa !31
  call void (ptr, i32, ptr, ...) @av_log(ptr noundef %49, i32 noundef 16, ptr noundef nonnull @.str.59) #11
  br label %56

50:                                               ; preds = %46
  %51 = getelementptr inbounds nuw i8, ptr %2, i64 3
  %52 = load i8, ptr %51, align 1, !tbaa !827
  %.not60 = icmp eq i8 %52, 0
  %53 = load ptr, ptr %0, align 8, !tbaa !31
  br i1 %.not60, label %55, label %54

54:                                               ; preds = %50
  call void (ptr, i32, ptr, ...) @av_log(ptr noundef %53, i32 noundef 16, ptr noundef nonnull @.str.60) #11
  br label %56

55:                                               ; preds = %50
  call void (ptr, i32, ptr, ...) @av_log(ptr noundef %53, i32 noundef 16, ptr noundef nonnull @.str.61) #11
  br label %56

56:                                               ; preds = %31, %45, %38, %21, %15, %4, %55, %54, %48, %29
  %.149 = phi i32 [ -1163346256, %48 ], [ -1163346256, %54 ], [ -1163346256, %55 ], [ %33, %38 ], [ %40, %45 ], [ -1094995529, %29 ], [ %19, %21 ], [ %13, %15 ], [ %10, %4 ], [ 0, %31 ]
  ret i32 %.149
}